target datalayout = "e-m:e-p270:32:32-p271:32:32-p272:64:64-i64:64-i128:128-f80:128-n8:16:32:64-S128"
target triple = "x86_64-unknown-linux-gnu"

%struct.Token = type { i32, ptr, i64, x86_fp80, ptr, i32, ptr, ptr, ptr, ptr, i32, i32, i8, i8, ptr, ptr }

@.str.100 = private unnamed_addr constant [2 x i8] c"<\00", align 1
@.str.101 = private unnamed_addr constant [2 x i8] c">\00", align 1
@.str.102 = private unnamed_addr constant [13 x i8] c"expected '>'\00", align 1
@.str.103 = private unnamed_addr constant [20 x i8] c"expected a filename\00", align 1
@.str.107 = private unnamed_addr constant [12 x i8] c"extra token\00", align 1

; Function Attrs: nounwind uwtable
define internal ptr @new_eof(ptr noundef %tok) #0 {
entry:
  %tok.addr = alloca ptr, align 8
  %t = alloca ptr, align 8
  store ptr %tok, ptr %tok.addr, align 8
  %0 = load ptr, ptr %tok.addr, align 8
  %call = call ptr @copy_token(ptr noundef %0)
  store ptr %call, ptr %t, align 8
  %1 = load ptr, ptr %t, align 8
  %kind = getelementptr inbounds %struct.Token, ptr %1, i32 0, i32 0
  store i32 6, ptr %kind, align 16
  %2 = load ptr, ptr %t, align 8
  %len = getelementptr inbounds %struct.Token, ptr %2, i32 0, i32 5
  store i32 0, ptr %len, align 8
  %3 = load ptr, ptr %t, align 8
  ret ptr %3
}

; Function Attrs: nounwind uwtable
define internal ptr @copy_token(ptr noundef %tok) #0 {
entry:
  %tok.addr = alloca ptr, align 8
  %t = alloca ptr, align 8
  store ptr %tok, ptr %tok.addr, align 8
  %call = call noalias ptr @calloc(i64 noundef 1, i64 noundef 128) #9
  store ptr %call, ptr %t, align 8
  %0 = load ptr, ptr %t, align 8
  %1 = load ptr, ptr %tok.addr, align 8
  call void @llvm.memcpy.p0.p0.i64(ptr align 16 %0, ptr align 16 %1, i64 128, i1 false)
  %2 = load ptr, ptr %t, align 8
  %next = getelementptr inbounds %struct.Token, ptr %2, i32 0, i32 1
  store ptr null, ptr %next, align 8
  %3 = load ptr, ptr %t, align 8
  ret ptr %3
}

; Function Attrs: nounwind uwtable
define internal ptr @copy_line(ptr noundef %rest, ptr noundef %tok) #0 {
entry:
  %rest.addr = alloca ptr, align 8
  %tok.addr = alloca ptr, align 8
  %head = alloca %struct.Token, align 16
  %cur = alloca ptr, align 8
  store ptr %rest, ptr %rest.addr, align 8
  store ptr %tok, ptr %tok.addr, align 8
  call void @llvm.memset.p0.i64(ptr align 16 %head, i8 0, i64 128, i1 false)
  store ptr %head, ptr %cur, align 8
  br label %for.cond

for.cond:                                         ; preds = %for.inc, %entry
  %0 = load ptr, ptr %tok.addr, align 8
  %at_bol = getelementptr inbounds %struct.Token, ptr %0, i32 0, i32 12
  %1 = load i8, ptr %at_bol, align 8
  %tobool = trunc i8 %1 to i1
  %lnot = xor i1 %tobool, true
  br i1 %lnot, label %for.body, label %for.end

for.body:                                         ; preds = %for.cond
  %2 = load ptr, ptr %tok.addr, align 8
  %call = call ptr @copy_token(ptr noundef %2)
  %3 = load ptr, ptr %cur, align 8
  %next = getelementptr inbounds %struct.Token, ptr %3, i32 0, i32 1
  store ptr %call, ptr %next, align 8
  store ptr %call, ptr %cur, align 8
  br label %for.inc

for.inc:                                          ; preds = %for.body
  %4 = load ptr, ptr %tok.addr, align 8
  %next1 = getelementptr inbounds %struct.Token, ptr %4, i32 0, i32 1
  %5 = load ptr, ptr %next1, align 8
  store ptr %5, ptr %tok.addr, align 8
  br label %for.cond, !llvm.loop !47

for.end:                                          ; preds = %for.cond
  %6 = load ptr, ptr %tok.addr, align 8
  %call2 = call ptr @new_eof(ptr noundef %6)
  %7 = load ptr, ptr %cur, align 8
  %next3 = getelementptr inbounds %struct.Token, ptr %7, i32 0, i32 1
  store ptr %call2, ptr %next3, align 8
  %8 = load ptr, ptr %tok.addr, align 8
  %9 = load ptr, ptr %rest.addr, align 8
  store ptr %8, ptr %9, align 8
  %next4 = getelementptr inbounds %struct.Token, ptr %head, i32 0, i32 1
  %10 = load ptr, ptr %next4, align 8
  ret ptr %10
}

; Function Attrs: nounwind uwtable
define internal ptr @skip_line(ptr noundef %tok) #0 {
entry:
  %retval = alloca ptr, align 8
  %tok.addr = alloca ptr, align 8
  store ptr %tok, ptr %tok.addr, align 8
  %0 = load ptr, ptr %tok.addr, align 8
  %at_bol = getelementptr inbounds %struct.Token, ptr %0, i32 0, i32 12
  %1 = load i8, ptr %at_bol, align 8
  %tobool = trunc i8 %1 to i1
  br i1 %tobool, label %if.then, label %if.end

if.then:                                          ; preds = %entry
  %2 = load ptr, ptr %tok.addr, align 8
  store ptr %2, ptr %retval, align 8
  br label %return

if.end:                                           ; preds = %entry
  %3 = load ptr, ptr %tok.addr, align 8
  call void (ptr, ptr, ...) @warn_tok(ptr noundef %3, ptr noundef @.str.107)
  br label %while.cond

while.cond:                                       ; preds = %while.body, %if.end
  %4 = load ptr, ptr %tok.addr, align 8
  %at_bol1 = getelementptr inbounds %struct.Token, ptr %4, i32 0, i32 12
  %5 = load i8, ptr %at_bol1, align 8
  %tobool2 = trunc i8 %5 to i1
  br i1 %tobool2, label %while.body, label %while.end

while.body:                                       ; preds = %while.cond
  %6 = load ptr, ptr %tok.addr, align 8
  %next = getelementptr inbounds %struct.Token, ptr %6, i32 0, i32 1
  %7 = load ptr, ptr %next, align 8
  store ptr %7, ptr %tok.addr, align 8
  br label %while.cond, !llvm.loop !28

while.end:                                        ; preds = %while.cond
  %8 = load ptr, ptr %tok.addr, align 8
  store ptr %8, ptr %retval, align 8
  br label %return

return:                                           ; preds = %while.end, %if.then
  %9 = load ptr, ptr %retval, align 8
  ret ptr %9
}

; Function Attrs: nounwind uwtable
define internal ptr @read_include_filename(ptr noundef %rest, ptr noundef %tok, ptr noundef %is_dquote) #0 {
entry:
  %retval = alloca ptr, align 8
  %rest.addr = alloca ptr, align 8
  %tok.addr = alloca ptr, align 8
  %is_dquote.addr = alloca ptr, align 8
  %start = alloca ptr, align 8
  %tok2 = alloca ptr, align 8
  store ptr %rest, ptr %rest.addr, align 8
  store ptr %tok, ptr %tok.addr, align 8
  store ptr %is_dquote, ptr %is_dquote.addr, align 8
  %0 = load ptr, ptr %tok.addr, align 8
  %kind = getelementptr inbounds %struct.Token, ptr %0, i32 0, i32 0
  %1 = load i32, ptr %kind, align 16
  %cmp = icmp eq i32 %1, 3
  br i1 %cmp, label %if.then, label %if.end

if.then:                                          ; preds = %entry
  %2 = load ptr, ptr %is_dquote.addr, align 8
  store i8 1, ptr %2, align 1
  %3 = load ptr, ptr %tok.addr, align 8
  %next = getelementptr inbounds %struct.Token, ptr %3, i32 0, i32 1
  %4 = load ptr, ptr %next, align 8
  %call = call ptr @skip_line(ptr noundef %4)
  %5 = load ptr, ptr %rest.addr, align 8
  store ptr %call, ptr %5, align 8
  %6 = load ptr, ptr %tok.addr, align 8
  %loc = getelementptr inbounds %struct.Token, ptr %6, i32 0, i32 4
  %7 = load ptr, ptr %loc, align 16
  %add.ptr = getelementptr inbounds i8, ptr %7, i64 1
  %8 = load ptr, ptr %tok.addr, align 8
  %len = getelementptr inbounds %struct.Token, ptr %8, i32 0, i32 5
  %9 = load i32, ptr %len, align 8
  %sub = sub nsw i32 %9, 2
  %conv = sext i32 %sub to i64
  %call1 = call noalias ptr @strndup(ptr noundef %add.ptr, i64 noundef %conv) #10
  store ptr %call1, ptr %retval, align 8
  br label %return

if.end:                                           ; preds = %entry
  %10 = load ptr, ptr %tok.addr, align 8
  %call2 = call zeroext i1 @equal(ptr noundef %10, ptr noundef @.str.100)
  br i1 %call2, label %if.then3, label %if.end16

if.then3:                                         ; preds = %if.end
  %11 = load ptr, ptr %tok.addr, align 8
  store ptr %11, ptr %start, align 8
  br label %for.cond

for.cond:                                         ; preds = %for.inc, %if.then3
  %12 = load ptr, ptr %tok.addr, align 8
  %call4 = call zeroext i1 @equal(ptr noundef %12, ptr noundef @.str.101)
  %lnot = xor i1 %call4, true
  br i1 %lnot, label %for.body, label %for.end

for.body:                                         ; preds = %for.cond
  %13 = load ptr, ptr %tok.addr, align 8
  %at_bol = getelementptr inbounds %struct.Token, ptr %13, i32 0, i32 12
  %14 = load i8, ptr %at_bol, align 8
  %tobool = trunc i8 %14 to i1
  br i1 %tobool, label %if.then9, label %lor.lhs.false

lor.lhs.false:                                    ; preds = %for.body
  %15 = load ptr, ptr %tok.addr, align 8
  %kind6 = getelementptr inbounds %struct.Token, ptr %15, i32 0, i32 0
  %16 = load i32, ptr %kind6, align 16
  %cmp7 = icmp eq i32 %16, 6
  br i1 %cmp7, label %if.then9, label %if.end10

if.then9:                                         ; preds = %lor.lhs.false, %for.body
  %17 = load ptr, ptr %tok.addr, align 8
  call void (ptr, ptr, ...) @error_tok(ptr noundef %17, ptr noundef @.str.102) #11
  unreachable

if.end10:                                         ; preds = %lor.lhs.false
  br label %for.inc

for.inc:                                          ; preds = %if.end10
  %18 = load ptr, ptr %tok.addr, align 8
  %next11 = getelementptr inbounds %struct.Token, ptr %18, i32 0, i32 1
  %19 = load ptr, ptr %next11, align 8
  store ptr %19, ptr %tok.addr, align 8
  br label %for.cond, !llvm.loop !26

for.end:                                          ; preds = %for.cond
  %20 = load ptr, ptr %is_dquote.addr, align 8
  store i8 0, ptr %20, align 1
  %21 = load ptr, ptr %tok.addr, align 8
  %next12 = getelementptr inbounds %struct.Token, ptr %21, i32 0, i32 1
  %22 = load ptr, ptr %next12, align 8
  %call13 = call ptr @skip_line(ptr noundef %22)
  %23 = load ptr, ptr %rest.addr, align 8
  store ptr %call13, ptr %23, align 8
  %24 = load ptr, ptr %start, align 8
  %next14 = getelementptr inbounds %struct.Token, ptr %24, i32 0, i32 1
  %25 = load ptr, ptr %next14, align 8
  %26 = load ptr, ptr %tok.addr, align 8
  %call15 = call ptr @join_tokens(ptr noundef %25, ptr noundef %26)
  store ptr %call15, ptr %retval, align 8
  br label %return

if.end16:                                         ; preds = %if.end
  %27 = load ptr, ptr %tok.addr, align 8
  %kind17 = getelementptr inbounds %struct.Token, ptr %27, i32 0, i32 0
  %28 = load i32, ptr %kind17, align 16
  %cmp18 = icmp eq i32 %28, 0
  br i1 %cmp18, label %if.then20, label %if.end24

if.then20:                                        ; preds = %if.end16
  %29 = load ptr, ptr %rest.addr, align 8
  %30 = load ptr, ptr %tok.addr, align 8
  %call21 = call ptr @copy_line(ptr noundef %29, ptr noundef %30)
  %call22 = call ptr @preprocess2(ptr noundef %call21)
  store ptr %call22, ptr %tok2, align 8
  %31 = load ptr, ptr %tok2, align 8
  %32 = load ptr, ptr %is_dquote.addr, align 8
  %call23 = call ptr @read_include_filename(ptr noundef %tok2, ptr noundef %31, ptr noundef %32)
  store ptr %call23, ptr %retval, align 8
  br label %return

if.end24:                                         ; preds = %if.end16
  %33 = load ptr, ptr %tok.addr, align 8
  call void (ptr, ptr, ...) @error_tok(ptr noundef %33, ptr noundef @.str.103) #11
  unreachable

return:                                           ; preds = %if.then20, %for.end, %if.then
  %34 = load ptr, ptr %retval, align 8
  ret ptr %34
}