; Function Attrs: nounwind uwtable
define internal fastcc ptr @read_include_filename(ptr nocapture noundef writeonly %rest, ptr noundef %tok, ptr nocapture noundef writeonly %is_dquote) unnamed_addr #0 {
entry:
  %head.i.sroa.3 = alloca ptr, align 8
  %tok2 = alloca ptr, align 8
  %0 = load i32, ptr %tok, align 16
  %cmp = icmp eq i32 %0, 3
  br i1 %cmp, label %if.then, label %if.end

if.then:                                          ; preds = %entry
  store i8 1, ptr %is_dquote, align 1
  %next = getelementptr inbounds %struct.Token, ptr %tok, i64 0, i32 1
  %1 = load ptr, ptr %next, align 8
  %at_bol.i = getelementptr inbounds %struct.Token, ptr %1, i64 0, i32 12
  %2 = load i8, ptr %at_bol.i, align 8
  %3 = and i8 %2, 1
  %tobool.not.i = icmp eq i8 %3, 0
  br i1 %tobool.not.i, label %if.end.i, label %skip_line.exit

if.end.i:                                         ; preds = %if.then
  tail call void (ptr, ptr, ...) @warn_tok(ptr noundef nonnull %1, ptr noundef nonnull @.str.107) #14
  %4 = load i8, ptr %at_bol.i, align 8
  %5 = and i8 %4, 1
  %tobool2.not7.i = icmp eq i8 %5, 0
  br i1 %tobool2.not7.i, label %skip_line.exit, label %while.body.i

while.body.i:                                     ; preds = %if.end.i, %while.body.i
  %tok.addr.08.i = phi ptr [ %6, %while.body.i ], [ %1, %if.end.i ]
  %next.i = getelementptr inbounds %struct.Token, ptr %tok.addr.08.i, i64 0, i32 1
  %6 = load ptr, ptr %next.i, align 8
  %at_bol1.i = getelementptr inbounds %struct.Token, ptr %6, i64 0, i32 12
  %7 = load i8, ptr %at_bol1.i, align 8
  %8 = and i8 %7, 1
  %tobool2.not.i = icmp eq i8 %8, 0
  br i1 %tobool2.not.i, label %skip_line.exit, label %while.body.i, !llvm.loop !42

skip_line.exit:                                   ; preds = %while.body.i, %if.then, %if.end.i
  %retval.0.i = phi ptr [ %1, %if.then ], [ %1, %if.end.i ], [ %6, %while.body.i ]
  store ptr %retval.0.i, ptr %rest, align 8
  %loc = getelementptr inbounds %struct.Token, ptr %tok, i64 0, i32 4
  %9 = load ptr, ptr %loc, align 16
  %add.ptr = getelementptr inbounds i8, ptr %9, i64 1
  %len = getelementptr inbounds %struct.Token, ptr %tok, i64 0, i32 5
  %10 = load i32, ptr %len, align 8
  %sub = add nsw i32 %10, -2
  %conv = sext i32 %sub to i64
  %call1 = tail call noalias ptr @strndup(ptr noundef nonnull %add.ptr, i64 noundef %conv) #14
  br label %return

if.end:                                           ; preds = %entry
  %call2 = tail call zeroext i1 @equal(ptr noundef nonnull %tok, ptr noundef nonnull @.str.100) #14
  br i1 %call2, label %for.cond.preheader, label %if.end16

for.cond.preheader:                               ; preds = %if.end
  %call437 = tail call zeroext i1 @equal(ptr noundef nonnull %tok, ptr noundef nonnull @.str.101) #14
  br i1 %call437, label %for.end, label %for.body

for.body:                                         ; preds = %for.cond.preheader, %for.inc
  %tok.addr.038 = phi ptr [ %14, %for.inc ], [ %tok, %for.cond.preheader ]
  %at_bol = getelementptr inbounds %struct.Token, ptr %tok.addr.038, i64 0, i32 12
  %11 = load i8, ptr %at_bol, align 8
  %12 = and i8 %11, 1
  %tobool.not = icmp eq i8 %12, 0
  br i1 %tobool.not, label %lor.lhs.false, label %if.then9

lor.lhs.false:                                    ; preds = %for.body
  %13 = load i32, ptr %tok.addr.038, align 16
  %cmp7 = icmp eq i32 %13, 6
  br i1 %cmp7, label %if.then9, label %for.inc

if.then9:                                         ; preds = %lor.lhs.false, %for.body
  tail call void (ptr, ptr, ...) @error_tok(ptr noundef nonnull %tok.addr.038, ptr noundef nonnull @.str.102) #16
  unreachable

for.inc:                                          ; preds = %lor.lhs.false
  %next11 = getelementptr inbounds %struct.Token, ptr %tok.addr.038, i64 0, i32 1
  %14 = load ptr, ptr %next11, align 8
  %call4 = tail call zeroext i1 @equal(ptr noundef %14, ptr noundef nonnull @.str.101) #14
  br i1 %call4, label %for.end, label %for.body, !llvm.loop !44

for.end:                                          ; preds = %for.inc, %for.cond.preheader
  %tok.addr.0.lcssa = phi ptr [ %tok, %for.cond.preheader ], [ %14, %for.inc ]
  store i8 0, ptr %is_dquote, align 1
  %next12 = getelementptr inbounds %struct.Token, ptr %tok.addr.0.lcssa, i64 0, i32 1
  %15 = load ptr, ptr %next12, align 8
  %at_bol.i20 = getelementptr inbounds %struct.Token, ptr %15, i64 0, i32 12
  %16 = load i8, ptr %at_bol.i20, align 8
  %17 = and i8 %16, 1
  %tobool.not.i21 = icmp eq i8 %17, 0
  br i1 %tobool.not.i21, label %if.end.i23, label %skip_line.exit30

if.end.i23:                                       ; preds = %for.end
  tail call void (ptr, ptr, ...) @warn_tok(ptr noundef nonnull %15, ptr noundef nonnull @.str.107) #14
  %18 = load i8, ptr %at_bol.i20, align 8
  %19 = and i8 %18, 1
  %tobool2.not7.i24 = icmp eq i8 %19, 0
  br i1 %tobool2.not7.i24, label %skip_line.exit30, label %while.body.i25

while.body.i25:                                   ; preds = %if.end.i23, %while.body.i25
  %tok.addr.08.i26 = phi ptr [ %20, %while.body.i25 ], [ %15, %if.end.i23 ]
  %next.i27 = getelementptr inbounds %struct.Token, ptr %tok.addr.08.i26, i64 0, i32 1
  %20 = load ptr, ptr %next.i27, align 8
  %at_bol1.i28 = getelementptr inbounds %struct.Token, ptr %20, i64 0, i32 12
  %21 = load i8, ptr %at_bol1.i28, align 8
  %22 = and i8 %21, 1
  %tobool2.not.i29 = icmp eq i8 %22, 0
  br i1 %tobool2.not.i29, label %skip_line.exit30, label %while.body.i25, !llvm.loop !42

skip_line.exit30:                                 ; preds = %while.body.i25, %for.end, %if.end.i23
  %retval.0.i22 = phi ptr [ %15, %for.end ], [ %15, %if.end.i23 ], [ %20, %while.body.i25 ]
  store ptr %retval.0.i22, ptr %rest, align 8
  %next14 = getelementptr inbounds %struct.Token, ptr %tok, i64 0, i32 1
  %23 = load ptr, ptr %next14, align 8
  %call15 = tail call fastcc ptr @join_tokens(ptr noundef %23, ptr noundef %tok.addr.0.lcssa)
  br label %return

if.end16:                                         ; preds = %if.end
  %24 = load i32, ptr %tok, align 16
  %cmp18 = icmp eq i32 %24, 0
  br i1 %cmp18, label %if.then20, label %if.end24

if.then20:                                        ; preds = %if.end16
  call void @llvm.lifetime.start.p0(i64 8, ptr nonnull %head.i.sroa.3)
  store ptr null, ptr %head.i.sroa.3, align 8
  %at_bol6.i = getelementptr inbounds %struct.Token, ptr %tok, i64 0, i32 12
  %25 = load i8, ptr %at_bol6.i, align 8
  %26 = and i8 %25, 1
  %tobool.not7.i = icmp eq i8 %26, 0
  br i1 %tobool.not7.i, label %for.body.i, label %copy_line.exit

for.body.i:                                       ; preds = %if.then20, %for.body.i
  %tok.addr.08.i31 = phi ptr [ %27, %for.body.i ], [ %tok, %if.then20 ]
  %cur.09.sroa.phi.i = phi ptr [ %call.i.i.sroa.gep, %for.body.i ], [ %head.i.sroa.3, %if.then20 ]
  %call.i.i = tail call noalias noundef dereferenceable_or_null(128) ptr @calloc(i64 noundef 1, i64 noundef 128) #15
  %call.i.i.sroa.gep = getelementptr inbounds %struct.Token, ptr %call.i.i, i64 0, i32 1
  tail call void @llvm.memcpy.p0.p0.i64(ptr noundef nonnull align 16 dereferenceable(128) %call.i.i, ptr noundef nonnull align 16 dereferenceable(128) %tok.addr.08.i31, i64 128, i1 false)
  store ptr null, ptr %call.i.i.sroa.gep, align 8
  store ptr %call.i.i, ptr %cur.09.sroa.phi.i, align 8
  %next1.i = getelementptr inbounds %struct.Token, ptr %tok.addr.08.i31, i64 0, i32 1
  %27 = load ptr, ptr %next1.i, align 8
  %at_bol.i32 = getelementptr inbounds %struct.Token, ptr %27, i64 0, i32 12
  %28 = load i8, ptr %at_bol.i32, align 8
  %29 = and i8 %28, 1
  %tobool.not.i33 = icmp eq i8 %29, 0
  br i1 %tobool.not.i33, label %for.body.i, label %copy_line.exit, !llvm.loop !41

copy_line.exit:                                   ; preds = %for.body.i, %if.then20
  %tok.addr.0.lcssa.i = phi ptr [ %tok, %if.then20 ], [ %27, %for.body.i ]
  %cur.0.lcssa.i.sroa.phi = phi ptr [ %head.i.sroa.3, %if.then20 ], [ %call.i.i.sroa.gep, %for.body.i ]
  %call.i.i.i = tail call noalias noundef dereferenceable_or_null(128) ptr @calloc(i64 noundef 1, i64 noundef 128) #15
  tail call void @llvm.memcpy.p0.p0.i64(ptr noundef nonnull align 16 dereferenceable(128) %call.i.i.i, ptr noundef nonnull align 16 dereferenceable(128) %tok.addr.0.lcssa.i, i64 128, i1 false)
  %next.i.i.i = getelementptr inbounds %struct.Token, ptr %call.i.i.i, i64 0, i32 1
  store ptr null, ptr %next.i.i.i, align 8
  store i32 6, ptr %call.i.i.i, align 16
  %len.i.i = getelementptr inbounds %struct.Token, ptr %call.i.i.i, i64 0, i32 5
  store i32 0, ptr %len.i.i, align 8
  store ptr %call.i.i.i, ptr %cur.0.lcssa.i.sroa.phi, align 8
  store ptr %tok.addr.0.lcssa.i, ptr %rest, align 8
  %head.i.sroa.3.0.head.i.sroa.3.0.head.i.sroa.3.0.head.i.sroa.3.8. = load ptr, ptr %head.i.sroa.3, align 8
  call void @llvm.lifetime.end.p0(i64 8, ptr nonnull %head.i.sroa.3)
  %call22 = tail call fastcc ptr @preprocess2(ptr noundef %head.i.sroa.3.0.head.i.sroa.3.0.head.i.sroa.3.0.head.i.sroa.3.8.)
  %call23 = call fastcc ptr @read_include_filename(ptr noundef nonnull %tok2, ptr noundef %call22, ptr noundef %is_dquote)
  br label %return

if.end24:                                         ; preds = %if.end16
  tail call void (ptr, ptr, ...) @error_tok(ptr noundef nonnull %tok, ptr noundef nonnull @.str.103) #16
  unreachable

return:                                           ; preds = %copy_line.exit, %skip_line.exit30, %skip_line.exit
  %retval.0 = phi ptr [ %call1, %skip_line.exit ], [ %call15, %skip_line.exit30 ], [ %call23, %copy_line.exit ]
  ret ptr %retval.0
}